; Function Attrs: mustprogress uwtable
define hidden noundef ptr @_ZN20dependency_converter6concatEPS_S0_(ptr noundef %mc1, ptr noundef %mc2) local_unnamed_addr #3 align 2 personality ptr @__gxx_personality_v0 {
entry:
  %tobool.not = icmp eq ptr %mc1, null
  br i1 %tobool.not, label %return, label %if.end

if.end:                                           ; preds = %entry
  %tobool1.not = icmp eq ptr %mc2, null
  br i1 %tobool1.not, label %return, label %_ZN27concat_dependency_converterC2EP20dependency_converterS1_.exit

_ZN27concat_dependency_converterC2EP20dependency_converterS1_.exit: ; preds = %if.end
  %call = tail call noalias noundef ptr @_ZN6memory8allocateEm(i64 noundef 32)
  %m_ref_count.i.i.i = getelementptr inbounds i8, ptr %call, i64 8
  store i32 0, ptr %m_ref_count.i.i.i, align 8
  store ptr getelementptr inbounds ({ [8 x ptr] }, ptr @_ZTV27concat_dependency_converter, i64 0, i32 0, i64 2), ptr %call, align 8
  %m_dc1.i = getelementptr inbounds i8, ptr %call, i64 16
  store ptr %mc1, ptr %m_dc1.i, align 8
  %m_ref_count.i.i.i.i = getelementptr inbounds i8, ptr %mc1, i64 8
  %0 = load i32, ptr %m_ref_count.i.i.i.i, align 8
  %inc.i.i.i.i = add i32 %0, 1
  store i32 %inc.i.i.i.i, ptr %m_ref_count.i.i.i.i, align 8
  %m_dc2.i = getelementptr inbounds i8, ptr %call, i64 24
  store ptr %mc2, ptr %m_dc2.i, align 8
  %m_ref_count.i.i.i4.i = getelementptr inbounds i8, ptr %mc2, i64 8
  %1 = load i32, ptr %m_ref_count.i.i.i4.i, align 8
  %inc.i.i.i5.i = add i32 %1, 1
  store i32 %inc.i.i.i5.i, ptr %m_ref_count.i.i.i4.i, align 8
  br label %return

return:                                           ; preds = %if.end, %entry, %_ZN27concat_dependency_converterC2EP20dependency_converterS1_.exit
  %retval.0 = phi ptr [ %call, %_ZN27concat_dependency_converterC2EP20dependency_converterS1_.exit ], [ %mc2, %entry ], [ %mc1, %if.end ]
  ret ptr %retval.0
}